target datalayout = "e-m:e-p270:32:32-p271:32:32-p272:64:64-i64:64-i128:128-f80:128-n8:16:32:64-S128"
target triple = "x86_64-unknown-linux-gnu"

%"class.node::MemoryRetainer" = type { ptr }
%"class.node::crypto::ByteSource" = type { ptr, ptr, i64 }
%"struct.node::crypto::HashConfig" = type <{ %"class.node::MemoryRetainer", i32, [4 x i8], %"class.node::crypto::ByteSource", ptr, i32, [4 x i8] }>

; Function Attrs: mustprogress nounwind uwtable
define linkonce_odr dso_local void @_ZN4node14MemoryRetainerC2Ev(ptr noundef nonnull align 8 dereferenceable(8) %this) unnamed_addr #4 comdat align 2 {
entry:
  %this.addr = alloca ptr, align 8
  store ptr %this, ptr %this.addr, align 8
  %this1 = load ptr, ptr %this.addr, align 8
  store ptr getelementptr inbounds ({ [10 x ptr] }, ptr @_ZTVN4node14MemoryRetainerE, i32 0, i32 0, i32 2), ptr %this1, align 8
  ret void
}

; Function Attrs: mustprogress nounwind uwtable
define dso_local void @_ZN4node6crypto10HashConfigC2EOS1_(ptr noundef nonnull align 8 dereferenceable(56) %this, ptr noundef nonnull align 8 dereferenceable(56) %other) unnamed_addr #4 align 2 {
entry:
  %this.addr = alloca ptr, align 8
  %other.addr = alloca ptr, align 8
  store ptr %this, ptr %this.addr, align 8
  store ptr %other, ptr %other.addr, align 8
  %this1 = load ptr, ptr %this.addr, align 8
  call void @_ZN4node14MemoryRetainerC2Ev(ptr noundef nonnull align 8 dereferenceable(8) %this1) #3
  store ptr getelementptr inbounds ({ [10 x ptr] }, ptr @_ZTVN4node6crypto10HashConfigE, i32 0, i32 0, i32 2), ptr %this1, align 8
  %mode = getelementptr inbounds %"struct.node::crypto::HashConfig", ptr %this1, i32 0, i32 1
  %0 = load ptr, ptr %other.addr, align 8
  %mode2 = getelementptr inbounds %"struct.node::crypto::HashConfig", ptr %0, i32 0, i32 1
  %1 = load i32, ptr %mode2, align 8
  store i32 %1, ptr %mode, align 8
  %in = getelementptr inbounds %"struct.node::crypto::HashConfig", ptr %this1, i32 0, i32 3
  %2 = load ptr, ptr %other.addr, align 8
  %in3 = getelementptr inbounds %"struct.node::crypto::HashConfig", ptr %2, i32 0, i32 3
  call void @_ZN4node6crypto10ByteSourceC1EOS1_(ptr noundef nonnull align 8 dereferenceable(24) %in, ptr noundef nonnull align 8 dereferenceable(24) %in3) #3
  %digest = getelementptr inbounds %"struct.node::crypto::HashConfig", ptr %this1, i32 0, i32 4
  %3 = load ptr, ptr %other.addr, align 8
  %digest4 = getelementptr inbounds %"struct.node::crypto::HashConfig", ptr %3, i32 0, i32 4
  %4 = load ptr, ptr %digest4, align 8
  store ptr %4, ptr %digest, align 8
  %length = getelementptr inbounds %"struct.node::crypto::HashConfig", ptr %this1, i32 0, i32 5
  %5 = load ptr, ptr %other.addr, align 8
  %length5 = getelementptr inbounds %"struct.node::crypto::HashConfig", ptr %5, i32 0, i32 5
  %6 = load i32, ptr %length5, align 8
  store i32 %6, ptr %length, align 8
  ret void
}