; Function Attrs: mustprogress nounwind uwtable
define dso_local void @_ZN4node6crypto10HashConfigC2EOS1_(ptr noundef nonnull align 8 dereferenceable(56) %this, ptr noundef nonnull align 8 dereferenceable(56) %other) unnamed_addr #3 align 2 {
entry:
  store ptr getelementptr inbounds ({ [10 x ptr] }, ptr @_ZTVN4node6crypto10HashConfigE, i64 0, i32 0, i64 2), ptr %this, align 8
  %mode = getelementptr inbounds i8, ptr %this, i64 8
  %mode2 = getelementptr inbounds i8, ptr %other, i64 8
  %0 = load i32, ptr %mode2, align 8
  store i32 %0, ptr %mode, align 8
  %in = getelementptr inbounds i8, ptr %this, i64 16
  %in3 = getelementptr inbounds i8, ptr %other, i64 16
  tail call void @_ZN4node6crypto10ByteSourceC1EOS1_(ptr noundef nonnull align 8 dereferenceable(24) %in, ptr noundef nonnull align 8 dereferenceable(24) %in3) #21
  %digest = getelementptr inbounds i8, ptr %this, i64 40
  %digest4 = getelementptr inbounds i8, ptr %other, i64 40
  %1 = load ptr, ptr %digest4, align 8
  store ptr %1, ptr %digest, align 8
  %length = getelementptr inbounds i8, ptr %this, i64 48
  %length5 = getelementptr inbounds i8, ptr %other, i64 48
  %2 = load i32, ptr %length5, align 8
  store i32 %2, ptr %length, align 8
  ret void
}